	.text
	.file	"main.c"
	.file	1 "/home/kavindu/ballerina/nBalTest/test-gc/statepoints/main.c"
	.file	2 "/usr/include/stdint.h"
	.globl	foo                             # -- Begin function foo
	.p2align	4, 0x90
	.type	foo,@function
foo:                                    # @foo
.Lfunc_begin0:
	.loc	1 20 0                          # main.c:20:0
	.cfi_startproc
# %bb.0:
	pushq	%rbp
	.cfi_def_cfa_offset 16
	.cfi_offset %rbp, -16
	movq	%rsp, %rbp
	.cfi_def_cfa_register %rbp
	subq	$16, %rsp
.Ltmp0:
	.loc	1 22 25 prologue_end            # main.c:22:25
	movl	$8, %edi
	callq	malloc
	.loc	1 22 14 is_stmt 0               # main.c:22:14
	movq	%rax, -8(%rbp)
	.loc	1 23 6 is_stmt 1                # main.c:23:6
	movq	-8(%rbp), %rax
	.loc	1 23 15 is_stmt 0               # main.c:23:15
	movl	$345, (%rax)                    # imm = 0x159
	.loc	1 24 1 is_stmt 1                # main.c:24:1
	addq	$16, %rsp
	popq	%rbp
	.cfi_def_cfa %rsp, 8
	retq
.Ltmp1:
.Lfunc_end0:
	.size	foo, .Lfunc_end0-foo
	.cfi_endproc
                                        # -- End function
	.globl	bar                             # -- Begin function bar
	.p2align	4, 0x90
	.type	bar,@function
bar:                                    # @bar
.Lfunc_begin1:
	.loc	1 26 0                          # main.c:26:0
	.cfi_startproc
# %bb.0:
	pushq	%rbp
	.cfi_def_cfa_offset 16
	.cfi_offset %rbp, -16
	movq	%rsp, %rbp
	.cfi_def_cfa_register %rbp
	subq	$64, %rsp
.Ltmp2:
	.loc	1 27 9 prologue_end             # main.c:27:9
	movl	$34, -4(%rbp)
	.loc	1 28 9                          # main.c:28:9
	movl	$34, -8(%rbp)
	.loc	1 29 10                         # main.c:29:10
	movq	$34, -16(%rbp)
	movl	$8, %edi
	.loc	1 30 26                         # main.c:30:26
	callq	malloc
	.loc	1 30 15 is_stmt 0               # main.c:30:15
	movq	%rax, -24(%rbp)
	.loc	1 31 6 is_stmt 1                # main.c:31:6
	movq	-24(%rbp), %rcx
	.loc	1 31 15 is_stmt 0               # main.c:31:15
	movq	$7, (%rcx)
	movq	%rax, -48(%rbp)
	callq	foo
.Ltmp3:
	.loc	1 34 5 is_stmt 1                # main.c:34:5
	movl	$__LLVM_StackMaps, %edi
	movl	$loc, %esi
	callq	readStackMap
.Ltmp4:
	.loc	1 35 54                         # main.c:35:54
	movq	%rsp, %rax
	.loc	1 35 58 is_stmt 0               # main.c:35:58
	movslq	loc, %rcx
	addq	%rcx, %rax
	.loc	1 35 15                         # main.c:35:15
	movq	%rax, -32(%rbp)
	.loc	1 36 54 is_stmt 1               # main.c:36:54
	movq	%rsp, %rax
	.loc	1 36 58 is_stmt 0               # main.c:36:58
	movslq	loc+4, %rcx
	addq	%rcx, %rax
	.loc	1 36 15                         # main.c:36:15
	movq	%rax, -40(%rbp)
	.loc	1 40 55 is_stmt 1               # main.c:40:55
	movq	-32(%rbp), %rax
	.loc	1 40 54 is_stmt 0               # main.c:40:54
	movq	(%rax), %rax
	.loc	1 40 39                         # main.c:40:39
	movq	(%rax), %rsi
	.loc	1 40 5                          # main.c:40:5
	movabsq	$.L.str, %rdi
	movb	$0, %al
	callq	printf
	.loc	1 41 55 is_stmt 1               # main.c:41:55
	movq	-40(%rbp), %rcx
	.loc	1 41 54 is_stmt 0               # main.c:41:54
	movq	(%rcx), %rcx
	.loc	1 41 39                         # main.c:41:39
	movq	(%rcx), %rsi
	.loc	1 41 5                          # main.c:41:5
	movabsq	$.L.str.1, %rdi
	movl	%eax, -52(%rbp)                 # 4-byte Spill
	movb	$0, %al
	callq	printf
	.loc	1 46 1 is_stmt 1                # main.c:46:1
	addq	$64, %rsp
	popq	%rbp
	.cfi_def_cfa %rsp, 8
	retq
.Ltmp5:
.Lfunc_end1:
	.size	bar, .Lfunc_end1-bar
	.cfi_endproc
                                        # -- End function
	.globl	main                            # -- Begin function main
	.p2align	4, 0x90
	.type	main,@function
main:                                   # @main
.Lfunc_begin2:
	.loc	1 48 0                          # main.c:48:0
	.cfi_startproc
# %bb.0:
	pushq	%rbp
	.cfi_def_cfa_offset 16
	.cfi_offset %rbp, -16
	movq	%rsp, %rbp
	.cfi_def_cfa_register %rbp
	subq	$48, %rsp
	xorl	%eax, %eax
	movl	$8, %edi
	movl	%eax, -20(%rbp)                 # 4-byte Spill
.Ltmp6:
	.loc	1 49 26 prologue_end            # main.c:49:26
	callq	malloc
	.loc	1 49 15 is_stmt 0               # main.c:49:15
	movq	%rax, -8(%rbp)
	.loc	1 50 6 is_stmt 1                # main.c:50:6
	movq	-8(%rbp), %rcx
	.loc	1 50 15 is_stmt 0               # main.c:50:15
	movq	$4, (%rcx)
	.loc	1 51 5 is_stmt 1                # main.c:51:5
	movl	$.L.str.2, %edi
	xorl	%edx, %edx
                                        # kill: def $dl killed $dl killed $edx
	leaq	-8(%rbp), %rsi
	movq	%rax, -32(%rbp)                 # 8-byte Spill
	movb	%dl, %al
	callq	printf
	movq	-32(%rbp), %rcx                 # 8-byte Reload
	.loc	1 52 5                          # main.c:52:5
	movq	%rcx, -16(%rbp)
	movl	%eax, -36(%rbp)                 # 4-byte Spill
	callq	bar
.Ltmp7:
	movl	-20(%rbp), %eax                 # 4-byte Reload
	.loc	1 54 1                          # main.c:54:1
	addq	$48, %rsp
	popq	%rbp
	.cfi_def_cfa %rsp, 8
	retq
.Ltmp8:
.Lfunc_end2:
	.size	main, .Lfunc_end2-main
	.cfi_endproc
                                        # -- End function
	.type	loc,@object                     # @loc
	.bss
	.globl	loc
	.p2align	2
loc:
	.zero	8
	.size	loc, 8

	.type	.L.str,@object                  # @.str
	.section	.rodata.str1.1,"aMS",@progbits,1
.L.str:
	.asciz	"value in loc2 : %lu\n\n"
	.size	.L.str, 22

	.type	.L.str.1,@object                # @.str.1
.L.str.1:
	.asciz	"value in loc1 : %lu\n\n"
	.size	.L.str.1, 22

	.type	.L.str.2,@object                # @.str.2
.L.str.2:
	.asciz	"Stack address of heapPtr1 : %p\n\n"
	.size	.L.str.2, 33

	.section	".note.GNU-stack","",@progbits
	.section	.llvm_stackmaps,"a",@progbits
__LLVM_StackMaps:
	.byte	3
	.byte	0
	.short	0
	.long	2
	.long	0
	.long	3
	.quad	bar
	.quad	72
	.quad	2
	.quad	main
	.quad	56
	.quad	1
	.quad	2882400000
	.long	.Ltmp3-bar
	.short	0
	.short	5
	.byte	4
	.byte	0
	.short	8
	.short	0
	.short	0
	.long	0
	.byte	4
	.byte	0
	.short	8
	.short	0
	.short	0
	.long	0
	.byte	4
	.byte	0
	.short	8
	.short	0
	.short	0
	.long	0
	.byte	3
	.byte	0
	.short	8
	.short	7
	.short	0
	.long	16
	.byte	3
	.byte	0
	.short	8
	.short	7
	.short	0
	.long	16
	.p2align	3
	.short	0
	.short	0
	.p2align	3
	.quad	2882400000
	.long	.Ltmp4-bar
	.short	0
	.short	3
	.byte	4
	.byte	0
	.short	8
	.short	0
	.short	0
	.long	0
	.byte	4
	.byte	0
	.short	8
	.short	0
	.short	0
	.long	0
	.byte	4
	.byte	0
	.short	8
	.short	0
	.short	0
	.long	0
	.p2align	3
	.short	0
	.short	0
	.p2align	3
	.quad	2882400000
	.long	.Ltmp7-main
	.short	0
	.short	5
	.byte	4
	.byte	0
	.short	8
	.short	0
	.short	0
	.long	0
	.byte	4
	.byte	0
	.short	8
	.short	0
	.short	0
	.long	0
	.byte	4
	.byte	0
	.short	8
	.short	0
	.short	0
	.long	0
	.byte	3
	.byte	0
	.short	8
	.short	7
	.short	0
	.long	32
	.byte	3
	.byte	0
	.short	8
	.short	7
	.short	0
	.long	32
	.p2align	3
	.short	0
	.short	0
	.p2align	3
